target datalayout = "e-m:e-p270:32:32-p271:32:32-p272:64:64-i64:64-i128:128-f80:128-n8:16:32:64-S128"
target triple = "x86_64-pc-linux-gnu"

; Function Attrs: nounwind uwtable
define internal ptr @pivot_big(ptr noundef %0, ptr noundef %1, ptr noundef %2, i64 noundef %3, ptr noundef %4, ptr noundef %5) #0 {
  %7 = alloca ptr, align 8
  %8 = alloca ptr, align 8
  %9 = alloca ptr, align 8
  %10 = alloca i64, align 8
  %11 = alloca ptr, align 8
  %12 = alloca ptr, align 8
  %13 = alloca i64, align 8
  %14 = alloca ptr, align 8
  %15 = alloca ptr, align 8
  %16 = alloca ptr, align 8
  %17 = alloca ptr, align 8
  %18 = alloca ptr, align 8
  %19 = alloca ptr, align 8
  %20 = alloca ptr, align 8
  %21 = alloca ptr, align 8
  %22 = alloca ptr, align 8
  %23 = alloca ptr, align 8
  %24 = alloca ptr, align 8
  %25 = alloca ptr, align 8
  store ptr %0, ptr %7, align 8
  store ptr %1, ptr %8, align 8
  store ptr %2, ptr %9, align 8
  store i64 %3, ptr %10, align 8
  store ptr %4, ptr %11, align 8
  store ptr %5, ptr %12, align 8
  call void @llvm.lifetime.start.p0(i64 8, ptr %13) #4
  %26 = load ptr, ptr %9, align 8
  %27 = load ptr, ptr %7, align 8
  %28 = ptrtoint ptr %26 to i64
  %29 = ptrtoint ptr %27 to i64
  %30 = sub i64 %28, %29
  %31 = load i64, ptr %10, align 8
  %32 = udiv i64 %30, %31
  %33 = lshr i64 %32, 3
  %34 = load i64, ptr %10, align 8
  %35 = mul i64 %33, %34
  store i64 %35, ptr %13, align 8
  call void @llvm.lifetime.start.p0(i64 8, ptr %14) #4
  call void @llvm.lifetime.start.p0(i64 8, ptr %15) #4
  call void @llvm.lifetime.start.p0(i64 8, ptr %16) #4
  call void @llvm.lifetime.start.p0(i64 8, ptr %17) #4
  %36 = load ptr, ptr %7, align 8
  store ptr %36, ptr %17, align 8
  call void @llvm.lifetime.start.p0(i64 8, ptr %18) #4
  %37 = load ptr, ptr %7, align 8
  %38 = load i64, ptr %13, align 8
  %39 = getelementptr inbounds nuw i8, ptr %37, i64 %38
  store ptr %39, ptr %18, align 8
  call void @llvm.lifetime.start.p0(i64 8, ptr %19) #4
  %40 = load ptr, ptr %7, align 8
  %41 = load i64, ptr %13, align 8
  %42 = mul i64 2, %41
  %43 = getelementptr inbounds nuw i8, ptr %40, i64 %42
  store ptr %43, ptr %19, align 8
  %44 = load ptr, ptr %11, align 8
  %45 = load ptr, ptr %12, align 8
  %46 = load ptr, ptr %17, align 8
  %47 = load ptr, ptr %18, align 8
  %48 = call i32 %44(ptr noundef %45, ptr noundef %46, ptr noundef %47)
  %49 = icmp slt i32 %48, 0
  br i1 %49, label %50, label %74

50:                                               ; preds = %6
  %51 = load ptr, ptr %11, align 8
  %52 = load ptr, ptr %12, align 8
  %53 = load ptr, ptr %18, align 8
  %54 = load ptr, ptr %19, align 8
  %55 = call i32 %51(ptr noundef %52, ptr noundef %53, ptr noundef %54)
  %56 = icmp slt i32 %55, 0
  br i1 %56, label %57, label %59

57:                                               ; preds = %50
  %58 = load ptr, ptr %18, align 8
  br label %72

59:                                               ; preds = %50
  %60 = load ptr, ptr %11, align 8
  %61 = load ptr, ptr %12, align 8
  %62 = load ptr, ptr %17, align 8
  %63 = load ptr, ptr %19, align 8
  %64 = call i32 %60(ptr noundef %61, ptr noundef %62, ptr noundef %63)
  %65 = icmp slt i32 %64, 0
  br i1 %65, label %66, label %68

66:                                               ; preds = %59
  %67 = load ptr, ptr %19, align 8
  br label %70

68:                                               ; preds = %59
  %69 = load ptr, ptr %17, align 8
  br label %70

70:                                               ; preds = %68, %66
  %71 = phi ptr [ %67, %66 ], [ %69, %68 ]
  br label %72

72:                                               ; preds = %70, %57
  %73 = phi ptr [ %58, %57 ], [ %71, %70 ]
  br label %98

74:                                               ; preds = %6
  %75 = load ptr, ptr %11, align 8
  %76 = load ptr, ptr %12, align 8
  %77 = load ptr, ptr %17, align 8
  %78 = load ptr, ptr %19, align 8
  %79 = call i32 %75(ptr noundef %76, ptr noundef %77, ptr noundef %78)
  %80 = icmp slt i32 %79, 0
  br i1 %80, label %81, label %83

81:                                               ; preds = %74
  %82 = load ptr, ptr %17, align 8
  br label %96

83:                                               ; preds = %74
  %84 = load ptr, ptr %11, align 8
  %85 = load ptr, ptr %12, align 8
  %86 = load ptr, ptr %18, align 8
  %87 = load ptr, ptr %19, align 8
  %88 = call i32 %84(ptr noundef %85, ptr noundef %86, ptr noundef %87)
  %89 = icmp slt i32 %88, 0
  br i1 %89, label %90, label %92

90:                                               ; preds = %83
  %91 = load ptr, ptr %19, align 8
  br label %94

92:                                               ; preds = %83
  %93 = load ptr, ptr %18, align 8
  br label %94

94:                                               ; preds = %92, %90
  %95 = phi ptr [ %91, %90 ], [ %93, %92 ]
  br label %96

96:                                               ; preds = %94, %81
  %97 = phi ptr [ %82, %81 ], [ %95, %94 ]
  br label %98

98:                                               ; preds = %96, %72
  %99 = phi ptr [ %73, %72 ], [ %97, %96 ]
  store ptr %99, ptr %14, align 8
  call void @llvm.lifetime.end.p0(i64 8, ptr %19) #4
  call void @llvm.lifetime.end.p0(i64 8, ptr %18) #4
  call void @llvm.lifetime.end.p0(i64 8, ptr %17) #4
  call void @llvm.lifetime.start.p0(i64 8, ptr %20) #4
  %100 = load ptr, ptr %8, align 8
  %101 = load i64, ptr %13, align 8
  %102 = sub i64 0, %101
  %103 = getelementptr inbounds i8, ptr %100, i64 %102
  store ptr %103, ptr %20, align 8
  call void @llvm.lifetime.start.p0(i64 8, ptr %21) #4
  %104 = load ptr, ptr %8, align 8
  store ptr %104, ptr %21, align 8
  call void @llvm.lifetime.start.p0(i64 8, ptr %22) #4
  %105 = load ptr, ptr %8, align 8
  %106 = load i64, ptr %13, align 8
  %107 = getelementptr inbounds nuw i8, ptr %105, i64 %106
  store ptr %107, ptr %22, align 8
  %108 = load ptr, ptr %11, align 8
  %109 = load ptr, ptr %12, align 8
  %110 = load ptr, ptr %20, align 8
  %111 = load ptr, ptr %21, align 8
  %112 = call i32 %108(ptr noundef %109, ptr noundef %110, ptr noundef %111)
  %113 = icmp slt i32 %112, 0
  br i1 %113, label %114, label %138

114:                                              ; preds = %98
  %115 = load ptr, ptr %11, align 8
  %116 = load ptr, ptr %12, align 8
  %117 = load ptr, ptr %21, align 8
  %118 = load ptr, ptr %22, align 8
  %119 = call i32 %115(ptr noundef %116, ptr noundef %117, ptr noundef %118)
  %120 = icmp slt i32 %119, 0
  br i1 %120, label %121, label %123

121:                                              ; preds = %114
  %122 = load ptr, ptr %21, align 8
  br label %136

123:                                              ; preds = %114
  %124 = load ptr, ptr %11, align 8
  %125 = load ptr, ptr %12, align 8
  %126 = load ptr, ptr %20, align 8
  %127 = load ptr, ptr %22, align 8
  %128 = call i32 %124(ptr noundef %125, ptr noundef %126, ptr noundef %127)
  %129 = icmp slt i32 %128, 0
  br i1 %129, label %130, label %132

130:                                              ; preds = %123
  %131 = load ptr, ptr %22, align 8
  br label %134

132:                                              ; preds = %123
  %133 = load ptr, ptr %20, align 8
  br label %134

134:                                              ; preds = %132, %130
  %135 = phi ptr [ %131, %130 ], [ %133, %132 ]
  br label %136

136:                                              ; preds = %134, %121
  %137 = phi ptr [ %122, %121 ], [ %135, %134 ]
  br label %162

138:                                              ; preds = %98
  %139 = load ptr, ptr %11, align 8
  %140 = load ptr, ptr %12, align 8
  %141 = load ptr, ptr %20, align 8
  %142 = load ptr, ptr %22, align 8
  %143 = call i32 %139(ptr noundef %140, ptr noundef %141, ptr noundef %142)
  %144 = icmp slt i32 %143, 0
  br i1 %144, label %145, label %147

145:                                              ; preds = %138
  %146 = load ptr, ptr %20, align 8
  br label %160

147:                                              ; preds = %138
  %148 = load ptr, ptr %11, align 8
  %149 = load ptr, ptr %12, align 8
  %150 = load ptr, ptr %21, align 8
  %151 = load ptr, ptr %22, align 8
  %152 = call i32 %148(ptr noundef %149, ptr noundef %150, ptr noundef %151)
  %153 = icmp slt i32 %152, 0
  br i1 %153, label %154, label %156

154:                                              ; preds = %147
  %155 = load ptr, ptr %22, align 8
  br label %158

156:                                              ; preds = %147
  %157 = load ptr, ptr %21, align 8
  br label %158

158:                                              ; preds = %156, %154
  %159 = phi ptr [ %155, %154 ], [ %157, %156 ]
  br label %160

160:                                              ; preds = %158, %145
  %161 = phi ptr [ %146, %145 ], [ %159, %158 ]
  br label %162

162:                                              ; preds = %160, %136
  %163 = phi ptr [ %137, %136 ], [ %161, %160 ]
  store ptr %163, ptr %15, align 8
  call void @llvm.lifetime.end.p0(i64 8, ptr %22) #4
  call void @llvm.lifetime.end.p0(i64 8, ptr %21) #4
  call void @llvm.lifetime.end.p0(i64 8, ptr %20) #4
  call void @llvm.lifetime.start.p0(i64 8, ptr %23) #4
  %164 = load ptr, ptr %9, align 8
  %165 = load i64, ptr %13, align 8
  %166 = mul i64 2, %165
  %167 = sub i64 0, %166
  %168 = getelementptr inbounds i8, ptr %164, i64 %167
  store ptr %168, ptr %23, align 8
  call void @llvm.lifetime.start.p0(i64 8, ptr %24) #4
  %169 = load ptr, ptr %9, align 8
  %170 = load i64, ptr %13, align 8
  %171 = sub i64 0, %170
  %172 = getelementptr inbounds i8, ptr %169, i64 %171
  store ptr %172, ptr %24, align 8
  call void @llvm.lifetime.start.p0(i64 8, ptr %25) #4
  %173 = load ptr, ptr %9, align 8
  store ptr %173, ptr %25, align 8
  %174 = load ptr, ptr %11, align 8
  %175 = load ptr, ptr %12, align 8
  %176 = load ptr, ptr %23, align 8
  %177 = load ptr, ptr %24, align 8
  %178 = call i32 %174(ptr noundef %175, ptr noundef %176, ptr noundef %177)
  %179 = icmp slt i32 %178, 0
  br i1 %179, label %180, label %204

180:                                              ; preds = %162
  %181 = load ptr, ptr %11, align 8
  %182 = load ptr, ptr %12, align 8
  %183 = load ptr, ptr %24, align 8
  %184 = load ptr, ptr %25, align 8
  %185 = call i32 %181(ptr noundef %182, ptr noundef %183, ptr noundef %184)
  %186 = icmp slt i32 %185, 0
  br i1 %186, label %187, label %189

187:                                              ; preds = %180
  %188 = load ptr, ptr %24, align 8
  br label %202

189:                                              ; preds = %180
  %190 = load ptr, ptr %11, align 8
  %191 = load ptr, ptr %12, align 8
  %192 = load ptr, ptr %23, align 8
  %193 = load ptr, ptr %25, align 8
  %194 = call i32 %190(ptr noundef %191, ptr noundef %192, ptr noundef %193)
  %195 = icmp slt i32 %194, 0
  br i1 %195, label %196, label %198

196:                                              ; preds = %189
  %197 = load ptr, ptr %25, align 8
  br label %200

198:                                              ; preds = %189
  %199 = load ptr, ptr %23, align 8
  br label %200

200:                                              ; preds = %198, %196
  %201 = phi ptr [ %197, %196 ], [ %199, %198 ]
  br label %202

202:                                              ; preds = %200, %187
  %203 = phi ptr [ %188, %187 ], [ %201, %200 ]
  br label %228

204:                                              ; preds = %162
  %205 = load ptr, ptr %11, align 8
  %206 = load ptr, ptr %12, align 8
  %207 = load ptr, ptr %23, align 8
  %208 = load ptr, ptr %25, align 8
  %209 = call i32 %205(ptr noundef %206, ptr noundef %207, ptr noundef %208)
  %210 = icmp slt i32 %209, 0
  br i1 %210, label %211, label %213

211:                                              ; preds = %204
  %212 = load ptr, ptr %23, align 8
  br label %226

213:                                              ; preds = %204
  %214 = load ptr, ptr %11, align 8
  %215 = load ptr, ptr %12, align 8
  %216 = load ptr, ptr %24, align 8
  %217 = load ptr, ptr %25, align 8
  %218 = call i32 %214(ptr noundef %215, ptr noundef %216, ptr noundef %217)
  %219 = icmp slt i32 %218, 0
  br i1 %219, label %220, label %222

220:                                              ; preds = %213
  %221 = load ptr, ptr %25, align 8
  br label %224

222:                                              ; preds = %213
  %223 = load ptr, ptr %24, align 8
  br label %224

224:                                              ; preds = %222, %220
  %225 = phi ptr [ %221, %220 ], [ %223, %222 ]
  br label %226

226:                                              ; preds = %224, %211
  %227 = phi ptr [ %212, %211 ], [ %225, %224 ]
  br label %228

228:                                              ; preds = %226, %202
  %229 = phi ptr [ %203, %202 ], [ %227, %226 ]
  store ptr %229, ptr %16, align 8
  call void @llvm.lifetime.end.p0(i64 8, ptr %25) #4
  call void @llvm.lifetime.end.p0(i64 8, ptr %24) #4
  call void @llvm.lifetime.end.p0(i64 8, ptr %23) #4
  %230 = load ptr, ptr %11, align 8
  %231 = load ptr, ptr %12, align 8
  %232 = load ptr, ptr %14, align 8
  %233 = load ptr, ptr %15, align 8
  %234 = call i32 %230(ptr noundef %231, ptr noundef %232, ptr noundef %233)
  %235 = icmp slt i32 %234, 0
  br i1 %235, label %236, label %260

236:                                              ; preds = %228
  %237 = load ptr, ptr %11, align 8
  %238 = load ptr, ptr %12, align 8
  %239 = load ptr, ptr %15, align 8
  %240 = load ptr, ptr %16, align 8
  %241 = call i32 %237(ptr noundef %238, ptr noundef %239, ptr noundef %240)
  %242 = icmp slt i32 %241, 0
  br i1 %242, label %243, label %245

243:                                              ; preds = %236
  %244 = load ptr, ptr %15, align 8
  br label %258

245:                                              ; preds = %236
  %246 = load ptr, ptr %11, align 8
  %247 = load ptr, ptr %12, align 8
  %248 = load ptr, ptr %14, align 8
  %249 = load ptr, ptr %16, align 8
  %250 = call i32 %246(ptr noundef %247, ptr noundef %248, ptr noundef %249)
  %251 = icmp slt i32 %250, 0
  br i1 %251, label %252, label %254

252:                                              ; preds = %245
  %253 = load ptr, ptr %16, align 8
  br label %256

254:                                              ; preds = %245
  %255 = load ptr, ptr %14, align 8
  br label %256

256:                                              ; preds = %254, %252
  %257 = phi ptr [ %253, %252 ], [ %255, %254 ]
  br label %258

258:                                              ; preds = %256, %243
  %259 = phi ptr [ %244, %243 ], [ %257, %256 ]
  br label %284

260:                                              ; preds = %228
  %261 = load ptr, ptr %11, align 8
  %262 = load ptr, ptr %12, align 8
  %263 = load ptr, ptr %14, align 8
  %264 = load ptr, ptr %16, align 8
  %265 = call i32 %261(ptr noundef %262, ptr noundef %263, ptr noundef %264)
  %266 = icmp slt i32 %265, 0
  br i1 %266, label %267, label %269

267:                                              ; preds = %260
  %268 = load ptr, ptr %14, align 8
  br label %282

269:                                              ; preds = %260
  %270 = load ptr, ptr %11, align 8
  %271 = load ptr, ptr %12, align 8
  %272 = load ptr, ptr %15, align 8
  %273 = load ptr, ptr %16, align 8
  %274 = call i32 %270(ptr noundef %271, ptr noundef %272, ptr noundef %273)
  %275 = icmp slt i32 %274, 0
  br i1 %275, label %276, label %278

276:                                              ; preds = %269
  %277 = load ptr, ptr %16, align 8
  br label %280

278:                                              ; preds = %269
  %279 = load ptr, ptr %15, align 8
  br label %280

280:                                              ; preds = %278, %276
  %281 = phi ptr [ %277, %276 ], [ %279, %278 ]
  br label %282

282:                                              ; preds = %280, %267
  %283 = phi ptr [ %268, %267 ], [ %281, %280 ]
  br label %284

284:                                              ; preds = %282, %258
  %285 = phi ptr [ %259, %258 ], [ %283, %282 ]
  call void @llvm.lifetime.end.p0(i64 8, ptr %16) #4
  call void @llvm.lifetime.end.p0(i64 8, ptr %15) #4
  call void @llvm.lifetime.end.p0(i64 8, ptr %14) #4
  call void @llvm.lifetime.end.p0(i64 8, ptr %13) #4
  ret ptr %285
}