; Function Attrs: nounwind uwtable
define internal fastcc ptr @pivot_big(ptr noundef %0, ptr noundef %1, ptr noundef %2, i64 noundef %3, ptr noundef readonly captures(none) %4, ptr noundef %5) unnamed_addr #0 {
  %7 = ptrtoint ptr %2 to i64
  %8 = ptrtoint ptr %0 to i64
  %9 = sub i64 %7, %8
  %10 = udiv i64 %9, %3
  %11 = lshr i64 %10, 3
  %12 = mul i64 %11, %3
  %13 = getelementptr inbounds nuw i8, ptr %0, i64 %12
  %14 = shl i64 %12, 1
  %15 = getelementptr inbounds nuw i8, ptr %0, i64 %14
  %16 = tail call i32 %4(ptr noundef %5, ptr noundef %0, ptr noundef %13) #5
  %17 = icmp slt i32 %16, 0
  br i1 %17, label %18, label %21

18:                                               ; preds = %6
  %19 = tail call i32 %4(ptr noundef %5, ptr noundef %13, ptr noundef %15) #5
  %20 = icmp slt i32 %19, 0
  br i1 %20, label %27, label %.sink.split

21:                                               ; preds = %6
  %22 = tail call i32 %4(ptr noundef %5, ptr noundef %0, ptr noundef %15) #5
  %23 = icmp slt i32 %22, 0
  br i1 %23, label %27, label %.sink.split

.sink.split:                                      ; preds = %21, %18
  %.sink = phi ptr [ %0, %18 ], [ %13, %21 ]
  %24 = tail call i32 %4(ptr noundef %5, ptr noundef %.sink, ptr noundef %15) #5
  %25 = icmp slt i32 %24, 0
  %26 = select i1 %25, ptr %15, ptr %.sink
  br label %27

27:                                               ; preds = %.sink.split, %21, %18
  %28 = phi ptr [ %13, %18 ], [ %0, %21 ], [ %26, %.sink.split ]
  %29 = sub i64 0, %12
  %30 = getelementptr inbounds i8, ptr %1, i64 %29
  %31 = getelementptr inbounds nuw i8, ptr %1, i64 %12
  %32 = tail call i32 %4(ptr noundef %5, ptr noundef %30, ptr noundef %1) #5
  %33 = icmp slt i32 %32, 0
  br i1 %33, label %34, label %37

34:                                               ; preds = %27
  %35 = tail call i32 %4(ptr noundef %5, ptr noundef %1, ptr noundef %31) #5
  %36 = icmp slt i32 %35, 0
  br i1 %36, label %43, label %.sink.split124

37:                                               ; preds = %27
  %38 = tail call i32 %4(ptr noundef %5, ptr noundef %30, ptr noundef %31) #5
  %39 = icmp slt i32 %38, 0
  br i1 %39, label %43, label %.sink.split124

.sink.split124:                                   ; preds = %37, %34
  %.sink128 = phi ptr [ %30, %34 ], [ %1, %37 ]
  %40 = tail call i32 %4(ptr noundef %5, ptr noundef %.sink128, ptr noundef %31) #5
  %41 = icmp slt i32 %40, 0
  %42 = select i1 %41, ptr %31, ptr %.sink128
  br label %43

43:                                               ; preds = %.sink.split124, %37, %34
  %44 = phi ptr [ %1, %34 ], [ %30, %37 ], [ %42, %.sink.split124 ]
  %45 = sub i64 0, %14
  %46 = getelementptr inbounds i8, ptr %2, i64 %45
  %47 = getelementptr inbounds i8, ptr %2, i64 %29
  %48 = tail call i32 %4(ptr noundef %5, ptr noundef %46, ptr noundef %47) #5
  %49 = icmp slt i32 %48, 0
  br i1 %49, label %50, label %53

50:                                               ; preds = %43
  %51 = tail call i32 %4(ptr noundef %5, ptr noundef %47, ptr noundef %2) #5
  %52 = icmp slt i32 %51, 0
  br i1 %52, label %59, label %.sink.split129

53:                                               ; preds = %43
  %54 = tail call i32 %4(ptr noundef %5, ptr noundef %46, ptr noundef %2) #5
  %55 = icmp slt i32 %54, 0
  br i1 %55, label %59, label %.sink.split129

.sink.split129:                                   ; preds = %53, %50
  %.sink133 = phi ptr [ %46, %50 ], [ %47, %53 ]
  %56 = tail call i32 %4(ptr noundef %5, ptr noundef %.sink133, ptr noundef %2) #5
  %57 = icmp slt i32 %56, 0
  %58 = select i1 %57, ptr %2, ptr %.sink133
  br label %59

59:                                               ; preds = %.sink.split129, %53, %50
  %60 = phi ptr [ %47, %50 ], [ %46, %53 ], [ %58, %.sink.split129 ]
  %61 = tail call i32 %4(ptr noundef %5, ptr noundef %28, ptr noundef %44) #5
  %62 = icmp slt i32 %61, 0
  br i1 %62, label %63, label %66

63:                                               ; preds = %59
  %64 = tail call i32 %4(ptr noundef %5, ptr noundef %44, ptr noundef %60) #5
  %65 = icmp slt i32 %64, 0
  br i1 %65, label %72, label %.sink.split134

66:                                               ; preds = %59
  %67 = tail call i32 %4(ptr noundef %5, ptr noundef %28, ptr noundef %60) #5
  %68 = icmp slt i32 %67, 0
  br i1 %68, label %72, label %.sink.split134

.sink.split134:                                   ; preds = %66, %63
  %.sink138 = phi ptr [ %28, %63 ], [ %44, %66 ]
  %69 = tail call i32 %4(ptr noundef %5, ptr noundef %.sink138, ptr noundef %60) #5
  %70 = icmp slt i32 %69, 0
  %71 = select i1 %70, ptr %60, ptr %.sink138
  br label %72

72:                                               ; preds = %.sink.split134, %66, %63
  %73 = phi ptr [ %44, %63 ], [ %28, %66 ], [ %71, %.sink.split134 ]
  ret ptr %73
}